; Function Attrs: mustprogress uwtable
define hidden void @_ZN2qe12hoist_existsER7obj_refI4expr11ast_managerER10ref_vectorI3appS2_E(ptr noundef nonnull align 8 dereferenceable(16) %fml, ptr noundef nonnull align 8 dereferenceable(16) %vars) local_unnamed_addr #3 personality ptr @__gxx_personality_v0 {
entry:
  %hoister = alloca %class.quantifier_hoister, align 8
  %m_manager.i = getelementptr inbounds i8, ptr %fml, i64 8
  %0 = load ptr, ptr %m_manager.i, align 8
  call void @_ZN18quantifier_hoisterC1ER11ast_manager(ptr noundef nonnull align 8 dereferenceable(8) %hoister, ptr noundef nonnull align 8 dereferenceable(976) %0)
  %1 = load ptr, ptr %fml, align 8
  invoke void @_ZN18quantifier_hoister11pull_existsEP4exprR10ref_vectorI3app11ast_managerER7obj_refIS0_S4_Ebb(ptr noundef nonnull align 8 dereferenceable(8) %hoister, ptr noundef %1, ptr noundef nonnull align 8 dereferenceable(16) %vars, ptr noundef nonnull align 8 dereferenceable(16) %fml, i1 noundef zeroext true, i1 noundef zeroext true)
          to label %invoke.cont2 unwind label %lpad

invoke.cont2:                                     ; preds = %entry
  call void @_ZN18quantifier_hoisterD1Ev(ptr noundef nonnull align 8 dereferenceable(8) %hoister) #24
  ret void

lpad:                                             ; preds = %entry
  %2 = landingpad { ptr, i32 }
          cleanup
  call void @_ZN18quantifier_hoisterD1Ev(ptr noundef nonnull align 8 dereferenceable(8) %hoister) #24
  resume { ptr, i32 } %2
}